TN:
SF:/home/anton/3laba_2kurs/src/DynamicArray.cpp
FN:124,137,_ZN12DynamicArrayIiE4MDELEi
FN:139,146,_ZNK12DynamicArrayIiE4MGETEi
FN:148,155,_ZN12DynamicArrayIiE4MSETEii
FN:15,20,_ZN12DynamicArrayINSt7__cxx1112basic_stringIcSt11char_traitsIcESaIcEEEEC2Ev
FN:15,20,_ZN12DynamicArrayIiEC2Ev
FN:157,167,_ZN12DynamicArrayIiE6resizeEi
FN:169,172,_ZNK12DynamicArrayINSt7__cxx1112basic_stringIcSt11char_traitsIcESaIcEEEE4sizeEv
FN:169,172,_ZNK12DynamicArrayIiE4sizeEv
FN:174,177,_ZNK12DynamicArrayINSt7__cxx1112basic_stringIcSt11char_traitsIcESaIcEEEE10memory_useEv
FN:174,177,_ZNK12DynamicArrayIiE10memory_useEv
FN:22,31,_ZN12DynamicArrayIiEC2ERKS0_
FN:33,44,_ZN12DynamicArrayIiEC2ESt16initializer_listIiE
FN:46,60,_ZN12DynamicArrayIiEaSERKS0_
FN:62,65,_ZN12DynamicArrayINSt7__cxx1112basic_stringIcSt11char_traitsIcESaIcEEEED2Ev
FN:62,65,_ZN12DynamicArrayIiED2Ev
FN:67,70,_ZN12DynamicArrayIiE5beginEv
FN:72,75,_ZN12DynamicArrayIiE3endEv
FN:77,93,_ZN12DynamicArrayIiE5MPUSHEi
FN:95,122,_ZN12DynamicArrayIiE5MPUSHEii
FNDA:8,_ZN12DynamicArrayIiE4MDELEi
FNDA:74,_ZNK12DynamicArrayIiE4MGETEi
FNDA:6,_ZN12DynamicArrayIiE4MSETEii
FNDA:2,_ZN12DynamicArrayINSt7__cxx1112basic_stringIcSt11char_traitsIcESaIcEEEEC2Ev
FNDA:6,_ZN12DynamicArrayIiEC2Ev
FNDA:2,_ZN12DynamicArrayIiE6resizeEi
FNDA:2,_ZNK12DynamicArrayINSt7__cxx1112basic_stringIcSt11char_traitsIcESaIcEEEE4sizeEv
FNDA:22,_ZNK12DynamicArrayIiE4sizeEv
FNDA:2,_ZNK12DynamicArrayINSt7__cxx1112basic_stringIcSt11char_traitsIcESaIcEEEE10memory_useEv
FNDA:2,_ZNK12DynamicArrayIiE10memory_useEv
FNDA:2,_ZN12DynamicArrayIiEC2ERKS0_
FNDA:14,_ZN12DynamicArrayIiEC2ESt16initializer_listIiE
FNDA:2,_ZN12DynamicArrayIiEaSERKS0_
FNDA:2,_ZN12DynamicArrayINSt7__cxx1112basic_stringIcSt11char_traitsIcESaIcEEEED2Ev
FNDA:22,_ZN12DynamicArrayIiED2Ev
FNDA:2,_ZN12DynamicArrayIiE5beginEv
FNDA:2,_ZN12DynamicArrayIiE3endEv
FNDA:8,_ZN12DynamicArrayIiE5MPUSHEi
FNDA:6,_ZN12DynamicArrayIiE5MPUSHEii
FNF:19
FNH:19
DA:15,8
DA:17,10
DA:18,8
DA:19,8
DA:20,8
DA:22,2
DA:24,2
DA:25,2
DA:26,2
DA:27,12
DA:29,10
DA:31,2
DA:33,14
DA:35,14
DA:36,14
DA:37,14
DA:39,14
DA:40,64
DA:42,50
DA:44,14
DA:46,2
DA:48,2
DA:50,2
DA:51,2
DA:52,2
DA:53,2
DA:54,12
DA:56,10
DA:59,2
DA:62,24
DA:64,26
DA:65,24
DA:67,2
DA:69,2
DA:72,2
DA:74,2
DA:77,8
DA:79,8
DA:81,4
DA:83,10
DA:85,6
DA:87,4
DA:88,4
DA:89,4
DA:91,8
DA:92,8
DA:93,8
DA:95,6
DA:97,6
DA:99,0
DA:102,6
DA:104,0
DA:106,0
DA:108,0
DA:110,0
DA:111,0
DA:112,0
DA:115,18
DA:117,12
DA:120,6
DA:121,6
DA:122,6
DA:124,8
DA:126,8
DA:128,2
DA:131,8
DA:133,2
DA:136,6
DA:137,6
DA:139,74
DA:141,74
DA:143,74
DA:145,0
DA:148,6
DA:150,6
DA:152,0
DA:154,6
DA:155,6
DA:157,2
DA:159,2
DA:160,4
DA:162,2
DA:164,2
DA:165,2
DA:166,2
DA:167,2
DA:169,24
DA:171,24
DA:174,4
DA:176,4
LF:90
LH:81
end_of_record
TN:
SF:/home/anton/3laba_2kurs/src/FBT.cpp
FN:102,109,_ZNK5QueueIP4nodeE5frontEv
FN:11,16,_ZN4nodeC2Ei
FN:122,127,_ZN3FBTC2Ei
FN:129,139,_ZN3FBTD2Ev
FN:143,179,_ZN3FBT3AddEi
FN:231,247,_ZN3FBT9findPlaceEi
FN:249,263,_ZN3FBT6isFullEv
FN:28,32,_ZN5QueueIP4nodeE4NodeC2ES1_
FN:40,44,_ZN5QueueIP4nodeEC2Ev
FN:46,56,_ZN5QueueIP4nodeEC2ERKS2_
FN:58,66,_ZN5QueueIP4nodeED2Ev
FN:68,71,_ZNK5QueueIP4nodeE8is_emptyEv
FN:73,85,_ZN5QueueIP4nodeE7enqueueES1_
FN:87,100,_ZN5QueueIP4nodeE7dequeueEv
FNDA:116,_ZNK5QueueIP4nodeE5frontEv
FNDA:28,_ZN4nodeC2Ei
FNDA:10,_ZN3FBTC2Ei
FNDA:10,_ZN3FBTD2Ev
FNDA:18,_ZN3FBT3AddEi
FNDA:32,_ZN3FBT9findPlaceEi
FNDA:4,_ZN3FBT6isFullEv
FNDA:166,_ZN5QueueIP4nodeE4NodeC2ES1_
FNDA:20,_ZN5QueueIP4nodeEC2Ev
FNDA:46,_ZN5QueueIP4nodeEC2ERKS2_
FNDA:66,_ZN5QueueIP4nodeED2Ev
FNDA:522,_ZNK5QueueIP4nodeE8is_emptyEv
FNDA:166,_ZN5QueueIP4nodeE7enqueueES1_
FNDA:92,_ZN5QueueIP4nodeE7dequeueEv
FNF:14
FNH:14
DA:11,28
DA:12,28
DA:13,28
DA:14,28
DA:15,28
DA:16,28
DA:28,166
DA:30,166
DA:31,166
DA:32,166
DA:40,20
DA:42,20
DA:43,20
DA:44,20
DA:46,46
DA:48,46
DA:49,46
DA:50,46
DA:51,156
DA:53,110
DA:54,110
DA:56,46
DA:58,66
DA:60,206
DA:62,74
DA:63,74
DA:64,74
DA:66,66
DA:68,522
DA:70,522
DA:73,166
DA:75,166
DA:76,166
DA:78,66
DA:82,100
DA:83,100
DA:85,166
DA:87,92
DA:89,92
DA:91,0
DA:93,92
DA:94,92
DA:95,92
DA:96,92
DA:98,32
DA:100,92
DA:102,116
DA:104,116
DA:106,0
DA:108,116
DA:122,10
DA:123,10
DA:124,10
DA:125,10
DA:126,10
DA:127,10
DA:129,10
DA:132,10
DA:133,48
DA:135,28
DA:136,28
DA:137,28
DA:139,10
DA:143,18
DA:149,18
DA:150,0
DA:152,18
DA:155,18
DA:157,18
DA:159,0
DA:162,18
DA:163,18
DA:164,18
DA:166,18
DA:167,10
DA:169,8
DA:170,8
DA:171,8
DA:175,0
DA:178,18
DA:231,32
DA:233,32
DA:235,80
DA:237,60
DA:238,60
DA:240,12
DA:242,48
DA:245,20
DA:247,32
DA:249,4
DA:250,4
DA:252,12
DA:254,10
DA:255,10
DA:256,10
DA:258,2
DA:260,8
DA:262,2
DA:263,4
LF:99
LH:94
end_of_record
TN:
SF:/home/anton/3laba_2kurs/src/ForwardList.cpp
FN:101,116,_ZN11ForwardList7delheadEv
FN:118,138,_ZN11ForwardList7deltailEv
FN:13,17,_ZN11ForwardList4NodeC2ENSt7__cxx1112basic_stringIcSt11char_traitsIcESaIcEEE
FN:140,183,_ZN11ForwardList6removeENSt7__cxx1112basic_stringIcSt11char_traitsIcESaIcEEE
FN:185,205,_ZN11ForwardList6searchENSt7__cxx1112basic_stringIcSt11char_traitsIcESaIcEEE
FN:25,29,_ZN11ForwardListC2Ev
FN:31,41,_ZN11ForwardListD2Ev
FN:43,46,_ZNK11ForwardList8is_emptyEv
FN:48,61,_ZN11ForwardList3getB5cxx11Ei
FN:63,73,_ZNK11ForwardList4sizeEv
FN:75,86,_ZN11ForwardList7addtailENSt7__cxx1112basic_stringIcSt11char_traitsIcESaIcEEE
FN:88,99,_ZN11ForwardList7addheadENSt7__cxx1112basic_stringIcSt11char_traitsIcESaIcEEE
FNDA:6,_ZN11ForwardList7delheadEv
FNDA:6,_ZN11ForwardList7deltailEv
FNDA:38,_ZN11ForwardList4NodeC2ENSt7__cxx1112basic_stringIcSt11char_traitsIcESaIcEEE
FNDA:2,_ZN11ForwardList6removeENSt7__cxx1112basic_stringIcSt11char_traitsIcESaIcEEE
FNDA:10,_ZN11ForwardList6searchENSt7__cxx1112basic_stringIcSt11char_traitsIcESaIcEEE
FNDA:20,_ZN11ForwardListC2Ev
FNDA:20,_ZN11ForwardListD2Ev
FNDA:84,_ZNK11ForwardList8is_emptyEv
FNDA:20,_ZN11ForwardList3getB5cxx11Ei
FNDA:48,_ZNK11ForwardList4sizeEv
FNDA:14,_ZN11ForwardList7addtailENSt7__cxx1112basic_stringIcSt11char_traitsIcESaIcEEE
FNDA:24,_ZN11ForwardList7addheadENSt7__cxx1112basic_stringIcSt11char_traitsIcESaIcEEE
FNF:12
FNH:12
DA:13,38
DA:14,38
DA:15,38
DA:16,38
DA:17,38
DA:25,20
DA:26,20
DA:27,20
DA:28,20
DA:29,20
DA:31,20
DA:33,20
DA:34,48
DA:36,28
DA:37,28
DA:38,28
DA:40,20
DA:41,20
DA:43,84
DA:45,84
DA:48,20
DA:50,20
DA:52,2
DA:55,18
DA:56,28
DA:58,10
DA:60,18
DA:63,48
DA:65,48
DA:66,48
DA:67,122
DA:69,74
DA:70,74
DA:72,48
DA:75,14
DA:77,14
DA:78,14
DA:80,8
DA:81,8
DA:82,8
DA:84,6
DA:85,6
DA:88,24
DA:90,24
DA:91,24
DA:93,10
DA:94,10
DA:95,10
DA:97,14
DA:98,14
DA:101,6
DA:103,6
DA:105,2
DA:107,4
DA:109,2
DA:110,2
DA:111,2
DA:113,2
DA:114,2
DA:115,2
DA:118,6
DA:120,6
DA:122,2
DA:124,4
DA:126,2
DA:127,2
DA:128,2
DA:130,2
DA:131,2
DA:133,0
DA:135,2
DA:136,2
DA:137,2
DA:140,2
DA:142,2
DA:144,0
DA:147,2
DA:149,0
DA:150,0
DA:151,0
DA:153,0
DA:155,0
DA:156,0
DA:159,2
DA:160,2
DA:161,4
DA:163,2
DA:164,2
DA:167,2
DA:169,0
DA:170,0
DA:173,2
DA:175,0
DA:178,2
DA:180,2
DA:182,2
DA:185,10
DA:187,10
DA:189,2
DA:192,8
DA:193,22
DA:195,18
DA:197,4
DA:198,4
DA:200,14
DA:203,4
DA:204,4
LF:107
LH:96
end_of_record
TN:
SF:/home/anton/3laba_2kurs/src/LinkedList.cpp
FN:118,138,_ZN10LinkedList7deltailEv
FN:14,19,_ZN10LinkedList4NodeC2ENSt7__cxx1112basic_stringIcSt11char_traitsIcESaIcEEE
FN:140,189,_ZN10LinkedList6removeENSt7__cxx1112basic_stringIcSt11char_traitsIcESaIcEEE
FN:191,204,_ZN10LinkedList3getB5cxx11Ei
FN:206,225,_ZN10LinkedList6searchENSt7__cxx1112basic_stringIcSt11char_traitsIcESaIcEEE
FN:27,31,_ZN10LinkedListC2Ev
FN:33,44,_ZN10LinkedListD2Ev
FN:46,49,_ZN10LinkedList8is_emptyEv
FN:51,61,_ZNK10LinkedList4sizeEv
FN:63,78,_ZN10LinkedList7addheadENSt7__cxx1112basic_stringIcSt11char_traitsIcESaIcEEE
FN:80,95,_ZN10LinkedList7addtailENSt7__cxx1112basic_stringIcSt11char_traitsIcESaIcEEE
FN:97,116,_ZN10LinkedList7delheadEv
FNDA:6,_ZN10LinkedList7deltailEv
FNDA:34,_ZN10LinkedList4NodeC2ENSt7__cxx1112basic_stringIcSt11char_traitsIcESaIcEEE
FNDA:4,_ZN10LinkedList6removeENSt7__cxx1112basic_stringIcSt11char_traitsIcESaIcEEE
FNDA:30,_ZN10LinkedList3getB5cxx11Ei
FNDA:10,_ZN10LinkedList6searchENSt7__cxx1112basic_stringIcSt11char_traitsIcESaIcEEE
FNDA:18,_ZN10LinkedListC2Ev
FNDA:18,_ZN10LinkedListD2Ev
FNDA:62,_ZN10LinkedList8is_emptyEv
FNDA:64,_ZNK10LinkedList4sizeEv
FNDA:6,_ZN10LinkedList7addheadENSt7__cxx1112basic_stringIcSt11char_traitsIcESaIcEEE
FNDA:28,_ZN10LinkedList7addtailENSt7__cxx1112basic_stringIcSt11char_traitsIcESaIcEEE
FNDA:10,_ZN10LinkedList7delheadEv
FNF:12
FNH:12
DA:14,34
DA:15,34
DA:16,34
DA:17,34
DA:18,34
DA:19,34
DA:27,18
DA:28,18
DA:29,18
DA:30,18
DA:31,18
DA:33,18
DA:35,18
DA:37,38
DA:39,20
DA:40,20
DA:41,20
DA:43,18
DA:44,18
DA:46,62
DA:48,62
DA:51,64
DA:53,64
DA:54,64
DA:55,160
DA:57,96
DA:58,96
DA:60,64
DA:63,6
DA:65,6
DA:67,6
DA:69,4
DA:70,4
DA:74,2
DA:75,2
DA:76,2
DA:78,6
DA:80,28
DA:82,28
DA:84,28
DA:86,10
DA:87,10
DA:91,18
DA:92,18
DA:93,18
DA:95,28
DA:97,10
DA:99,10
DA:101,4
DA:103,6
DA:105,6
DA:107,4
DA:111,2
DA:114,6
DA:115,6
DA:116,6
DA:118,6
DA:120,6
DA:122,0
DA:125,6
DA:127,6
DA:129,4
DA:133,2
DA:136,6
DA:137,6
DA:138,6
DA:140,4
DA:142,4
DA:144,2
DA:147,2
DA:148,2
DA:150,6
DA:152,6
DA:154,2
DA:156,0
DA:157,0
DA:159,0
DA:163,0
DA:166,2
DA:168,2
DA:169,2
DA:173,0
DA:174,0
DA:177,2
DA:178,2
DA:179,2
DA:181,4
DA:184,2
DA:187,0
DA:189,2
DA:191,30
DA:193,30
DA:195,6
DA:198,24
DA:199,42
DA:201,18
DA:203,24
DA:206,10
DA:208,10
DA:210,2
DA:213,8
DA:215,14
DA:217,10
DA:220,4
DA:222,6
DA:224,4
LF:106
LH:98
end_of_record
TN:
SF:/home/anton/3laba_2kurs/src/Queue.cpp
FN:12,16,_ZN5QUEUE4NodeC2ENSt7__cxx1112basic_stringIcSt11char_traitsIcESaIcEEE
FN:24,28,_ZN5QUEUEC2Ev
FN:30,39,_ZN5QUEUED2Ev
FN:41,44,_ZN5QUEUE8is_emptyEv
FN:46,59,_ZN5QUEUE4pushENSt7__cxx1112basic_stringIcSt11char_traitsIcESaIcEEE
FN:61,76,_ZN5QUEUE3popEv
FNDA:4,_ZN5QUEUE4NodeC2ENSt7__cxx1112basic_stringIcSt11char_traitsIcESaIcEEE
FNDA:10,_ZN5QUEUEC2Ev
FNDA:10,_ZN5QUEUED2Ev
FNDA:18,_ZN5QUEUE8is_emptyEv
FNDA:4,_ZN5QUEUE4pushENSt7__cxx1112basic_stringIcSt11char_traitsIcESaIcEEE
FNDA:4,_ZN5QUEUE3popEv
FNF:6
FNH:6
DA:12,4
DA:13,4
DA:14,4
DA:15,4
DA:16,4
DA:24,10
DA:25,10
DA:26,10
DA:27,10
DA:28,10
DA:30,10
DA:32,22
DA:34,2
DA:35,2
DA:36,2
DA:38,10
DA:39,10
DA:41,18
DA:43,18
DA:46,4
DA:48,4
DA:50,4
DA:52,4
DA:56,0
DA:57,0
DA:59,4
DA:61,4
DA:63,4
DA:65,2
DA:68,2
DA:69,2
DA:70,2
DA:72,2
DA:74,2
DA:76,2
LF:35
LH:33
end_of_record
TN:
SF:/home/anton/3laba_2kurs/src/Stack.cpp
FN:14,19,_ZN5Stack4NodeC2ENSt7__cxx1112basic_stringIcSt11char_traitsIcESaIcEEE
FN:27,31,_ZN5StackC2Ev
FN:33,42,_ZN5StackD2Ev
FN:44,47,_ZN5Stack8is_emptyEv
FN:49,64,_ZN5Stack4pushENSt7__cxx1112basic_stringIcSt11char_traitsIcESaIcEEE
FN:66,88,_ZN5Stack3popEv
FNDA:6,_ZN5Stack4NodeC2ENSt7__cxx1112basic_stringIcSt11char_traitsIcESaIcEEE
FNDA:12,_ZN5StackC2Ev
FNDA:12,_ZN5StackD2Ev
FNDA:16,_ZN5Stack8is_emptyEv
FNDA:6,_ZN5Stack4pushENSt7__cxx1112basic_stringIcSt11char_traitsIcESaIcEEE
FNDA:4,_ZN5Stack3popEv
FNF:6
FNH:6
DA:14,6
DA:15,6
DA:16,6
DA:17,6
DA:18,6
DA:19,6
DA:27,12
DA:28,12
DA:29,12
DA:30,12
DA:31,12
DA:33,12
DA:35,28
DA:37,4
DA:38,4
DA:39,4
DA:41,12
DA:42,12
DA:44,16
DA:46,16
DA:49,6
DA:51,6
DA:52,6
DA:54,6
DA:56,0
DA:60,6
DA:63,6
DA:64,6
DA:66,4
DA:68,4
DA:70,2
DA:73,2
DA:75,2
DA:77,0
DA:78,0
DA:83,2
DA:84,2
DA:87,2
DA:88,2
LF:39
LH:36
end_of_record
TN:
SF:/home/anton/3laba_2kurs/src/hash.cpp
FN:105,130,_ZN9Hashtable6removeERKNSt7__cxx1112basic_stringIcSt11char_traitsIcESaIcEEE
FN:13,18,_ZN4NodeC2ERKNSt7__cxx1112basic_stringIcSt11char_traitsIcESaIcEEES7_
FN:28,36,_ZN9Hashtable12hashfunctionERKNSt7__cxx1112basic_stringIcSt11char_traitsIcESaIcEEE
FN:40,48,_ZN9HashtableC2Ei
FN:50,63,_ZN9HashtableD2Ev
FN:65,86,_ZN9Hashtable3addERKNSt7__cxx1112basic_stringIcSt11char_traitsIcESaIcEEES7_
FN:88,103,_ZN9Hashtable3getERKNSt7__cxx1112basic_stringIcSt11char_traitsIcESaIcEEE
FNDA:2,_ZN9Hashtable6removeERKNSt7__cxx1112basic_stringIcSt11char_traitsIcESaIcEEE
FNDA:14,_ZN4NodeC2ERKNSt7__cxx1112basic_stringIcSt11char_traitsIcESaIcEEES7_
FNDA:34,_ZN9Hashtable12hashfunctionERKNSt7__cxx1112basic_stringIcSt11char_traitsIcESaIcEEE
FNDA:8,_ZN9HashtableC2Ei
FNDA:8,_ZN9HashtableD2Ev
FNDA:16,_ZN9Hashtable3addERKNSt7__cxx1112basic_stringIcSt11char_traitsIcESaIcEEES7_
FNDA:16,_ZN9Hashtable3getERKNSt7__cxx1112basic_stringIcSt11char_traitsIcESaIcEEE
FNF:7
FNH:7
DA:13,14
DA:14,14
DA:15,14
DA:16,14
DA:17,14
DA:18,14
DA:28,34
DA:30,34
DA:31,184
DA:33,150
DA:35,34
DA:40,8
DA:41,8
DA:42,8
DA:43,8
DA:44,72
DA:46,64
DA:48,8
DA:50,8
DA:52,72
DA:54,64
DA:55,76
DA:57,12
DA:58,12
DA:59,12
DA:62,8
DA:63,8
DA:65,16
DA:67,16
DA:68,16
DA:72,16
DA:74,2
DA:76,2
DA:77,2
DA:79,0
DA:83,14
DA:84,14
DA:85,14
DA:88,16
DA:90,16
DA:91,16
DA:93,16
DA:95,12
DA:97,12
DA:99,0
DA:102,4
DA:105,2
DA:107,2
DA:108,2
DA:109,2
DA:111,2
DA:113,2
DA:115,2
DA:117,2
DA:121,0
DA:123,2
DA:124,2
DA:126,0
DA:127,0
DA:129,0
LF:60
LH:54
end_of_record
TN:
SF:/home/anton/3laba_2kurs/tests/test_DynamicArray.cpp
FN:11,11,_ZN45DynamicArray_test_initializerConstructor_Test8TestBodyEv
FN:11,11,_ZN45DynamicArray_test_initializerConstructor_TestC2Ev
FN:11,11,_ZN45DynamicArray_test_initializerConstructor_TestD0Ev
FN:11,11,_ZN45DynamicArray_test_initializerConstructor_TestD2Ev
FN:113,125,_ZN27DynamicArray_test_MSET_Test8TestBodyEv
FN:113,125,_ZN27DynamicArray_test_MSET_TestC2Ev
FN:113,125,_ZN27DynamicArray_test_MSET_TestD0Ev
FN:113,125,_ZN27DynamicArray_test_MSET_TestD2Ev
FN:127,134,_ZN29DynamicArray_test_Resize_Test8TestBodyEv
FN:127,134,_ZN29DynamicArray_test_Resize_TestC2Ev
FN:127,134,_ZN29DynamicArray_test_Resize_TestD0Ev
FN:127,134,_ZN29DynamicArray_test_Resize_TestD2Ev
FN:20,20,_ZN38DynamicArray_test_copyConstructor_Test8TestBodyEv
FN:20,20,_ZN38DynamicArray_test_copyConstructor_TestC2Ev
FN:20,20,_ZN38DynamicArray_test_copyConstructor_TestD0Ev
FN:20,20,_ZN38DynamicArray_test_copyConstructor_TestD2Ev
FN:32,32,_ZN40DynamicArray_test_assigmentOperator_Test8TestBodyEv
FN:32,32,_ZN40DynamicArray_test_assigmentOperator_TestC2Ev
FN:32,32,_ZN40DynamicArray_test_assigmentOperator_TestD0Ev
FN:32,32,_ZN40DynamicArray_test_assigmentOperator_TestD2Ev
FN:4,4,_ZN41DynamicArray_test_defaultConstructor_Test8TestBodyEv
FN:4,4,_ZN41DynamicArray_test_defaultConstructor_TestC2Ev
FN:4,4,_ZN41DynamicArray_test_defaultConstructor_TestD0Ev
FN:4,4,_ZN41DynamicArray_test_defaultConstructor_TestD2Ev
FN:45,45,_ZN28DynamicArray_test_MPUSH_Test8TestBodyEv
FN:45,45,_ZN28DynamicArray_test_MPUSH_TestC2Ev
FN:45,45,_ZN28DynamicArray_test_MPUSH_TestD0Ev
FN:45,45,_ZN28DynamicArray_test_MPUSH_TestD2Ev
FN:57,57,_ZN35DynamicArray_test_MPUSHAtIndex_Test8TestBodyEv
FN:57,57,_ZN35DynamicArray_test_MPUSHAtIndex_TestC2Ev
FN:57,57,_ZN35DynamicArray_test_MPUSHAtIndex_TestD0Ev
FN:57,57,_ZN35DynamicArray_test_MPUSHAtIndex_TestD2Ev
FN:75,75,_ZN32DynamicArray_test_Iterators_Test8TestBodyEv
FN:75,75,_ZN32DynamicArray_test_Iterators_TestC2Ev
FN:75,75,_ZN32DynamicArray_test_Iterators_TestD0Ev
FN:75,75,_ZN32DynamicArray_test_Iterators_TestD2Ev
FN:90,90,_ZN27DynamicArray_test_MDEL_Test8TestBodyEv
FN:90,90,_ZN27DynamicArray_test_MDEL_TestC2Ev
FN:90,90,_ZN27DynamicArray_test_MDEL_TestD0Ev
FN:90,90,_ZN27DynamicArray_test_MDEL_TestD2Ev
FNDA:2,_ZN45DynamicArray_test_initializerConstructor_Test8TestBodyEv
FNDA:2,_ZN45DynamicArray_test_initializerConstructor_TestC2Ev
FNDA:2,_ZN45DynamicArray_test_initializerConstructor_TestD0Ev
FNDA:2,_ZN45DynamicArray_test_initializerConstructor_TestD2Ev
FNDA:2,_ZN27DynamicArray_test_MSET_Test8TestBodyEv
FNDA:2,_ZN27DynamicArray_test_MSET_TestC2Ev
FNDA:2,_ZN27DynamicArray_test_MSET_TestD0Ev
FNDA:2,_ZN27DynamicArray_test_MSET_TestD2Ev
FNDA:2,_ZN29DynamicArray_test_Resize_Test8TestBodyEv
FNDA:2,_ZN29DynamicArray_test_Resize_TestC2Ev
FNDA:2,_ZN29DynamicArray_test_Resize_TestD0Ev
FNDA:2,_ZN29DynamicArray_test_Resize_TestD2Ev
FNDA:2,_ZN38DynamicArray_test_copyConstructor_Test8TestBodyEv
FNDA:2,_ZN38DynamicArray_test_copyConstructor_TestC2Ev
FNDA:2,_ZN38DynamicArray_test_copyConstructor_TestD0Ev
FNDA:2,_ZN38DynamicArray_test_copyConstructor_TestD2Ev
FNDA:2,_ZN40DynamicArray_test_assigmentOperator_Test8TestBodyEv
FNDA:2,_ZN40DynamicArray_test_assigmentOperator_TestC2Ev
FNDA:2,_ZN40DynamicArray_test_assigmentOperator_TestD0Ev
FNDA:2,_ZN40DynamicArray_test_assigmentOperator_TestD2Ev
FNDA:2,_ZN41DynamicArray_test_defaultConstructor_Test8TestBodyEv
FNDA:2,_ZN41DynamicArray_test_defaultConstructor_TestC2Ev
FNDA:2,_ZN41DynamicArray_test_defaultConstructor_TestD0Ev
FNDA:2,_ZN41DynamicArray_test_defaultConstructor_TestD2Ev
FNDA:2,_ZN28DynamicArray_test_MPUSH_Test8TestBodyEv
FNDA:2,_ZN28DynamicArray_test_MPUSH_TestC2Ev
FNDA:2,_ZN28DynamicArray_test_MPUSH_TestD0Ev
FNDA:2,_ZN28DynamicArray_test_MPUSH_TestD2Ev
FNDA:2,_ZN35DynamicArray_test_MPUSHAtIndex_Test8TestBodyEv
FNDA:2,_ZN35DynamicArray_test_MPUSHAtIndex_TestC2Ev
FNDA:2,_ZN35DynamicArray_test_MPUSHAtIndex_TestD0Ev
FNDA:2,_ZN35DynamicArray_test_MPUSHAtIndex_TestD2Ev
FNDA:2,_ZN32DynamicArray_test_Iterators_Test8TestBodyEv
FNDA:2,_ZN32DynamicArray_test_Iterators_TestC2Ev
FNDA:2,_ZN32DynamicArray_test_Iterators_TestD0Ev
FNDA:2,_ZN32DynamicArray_test_Iterators_TestD2Ev
FNDA:2,_ZN27DynamicArray_test_MDEL_Test8TestBodyEv
FNDA:2,_ZN27DynamicArray_test_MDEL_TestC2Ev
FNDA:2,_ZN27DynamicArray_test_MDEL_TestD0Ev
FNDA:2,_ZN27DynamicArray_test_MDEL_TestD2Ev
FNF:40
FNH:40
DA:4,8
DA:6,2
DA:7,2
DA:8,2
DA:9,2
DA:11,8
DA:13,2
DA:14,2
DA:15,2
DA:16,2
DA:17,2
DA:18,2
DA:20,8
DA:22,2
DA:23,2
DA:24,2
DA:25,2
DA:26,2
DA:27,2
DA:28,2
DA:29,2
DA:30,2
DA:32,8
DA:34,2
DA:35,2
DA:36,2
DA:37,2
DA:38,2
DA:39,2
DA:40,2
DA:41,2
DA:42,2
DA:43,2
DA:45,8
DA:47,2
DA:48,2
DA:49,2
DA:50,2
DA:51,2
DA:52,2
DA:53,2
DA:54,2
DA:55,2
DA:57,8
DA:59,2
DA:60,2
DA:61,2
DA:62,2
DA:64,2
DA:65,2
DA:66,2
DA:68,2
DA:69,2
DA:70,2
DA:71,2
DA:73,2
DA:75,8
DA:77,2
DA:78,2
DA:79,2
DA:80,2
DA:81,2
DA:82,2
DA:83,2
DA:84,2
DA:85,2
DA:86,2
DA:90,8
DA:92,2
DA:94,2
DA:95,2
DA:96,2
DA:97,2
DA:99,2
DA:100,2
DA:101,2
DA:105,2
DA:107,2
DA:109,2
DA:110,2
DA:111,2
DA:113,8
DA:115,2
DA:116,2
DA:117,2
DA:119,2
DA:120,2
DA:122,2
DA:123,2
DA:124,2
DA:125,2
DA:127,8
DA:129,2
DA:130,2
DA:131,2
DA:132,2
DA:133,2
DA:134,2
LF:98
LH:98
end_of_record
TN:
SF:/home/anton/3laba_2kurs/tests/test_FBT.cpp
FN:12,12,_ZN21FBT_test_AddNode_Test8TestBodyEv
FN:12,12,_ZN21FBT_test_AddNode_TestC2Ev
FN:12,12,_ZN21FBT_test_AddNode_TestD0Ev
FN:12,12,_ZN21FBT_test_AddNode_TestD2Ev
FN:22,22,_ZN20FBT_test_isFull_Test8TestBodyEv
FN:22,22,_ZN20FBT_test_isFull_TestC2Ev
FN:22,22,_ZN20FBT_test_isFull_TestD0Ev
FN:22,22,_ZN20FBT_test_isFull_TestD2Ev
FN:32,32,_ZN21FBT_test_notFull_Test8TestBodyEv
FN:32,32,_ZN21FBT_test_notFull_TestC2Ev
FN:32,32,_ZN21FBT_test_notFull_TestD0Ev
FN:32,32,_ZN21FBT_test_notFull_TestD2Ev
FN:4,4,_ZN25FBT_test_Constructor_Test8TestBodyEv
FN:4,4,_ZN25FBT_test_Constructor_TestC2Ev
FN:4,4,_ZN25FBT_test_Constructor_TestD0Ev
FN:4,4,_ZN25FBT_test_Constructor_TestD2Ev
FN:42,42,_ZN22FBT_test_findNode_Test8TestBodyEv
FN:42,42,_ZN22FBT_test_findNode_TestC2Ev
FN:42,42,_ZN22FBT_test_findNode_TestD0Ev
FN:42,42,_ZN22FBT_test_findNode_TestD2Ev
FNDA:2,_ZN21FBT_test_AddNode_Test8TestBodyEv
FNDA:2,_ZN21FBT_test_AddNode_TestC2Ev
FNDA:2,_ZN21FBT_test_AddNode_TestD0Ev
FNDA:2,_ZN21FBT_test_AddNode_TestD2Ev
FNDA:2,_ZN20FBT_test_isFull_Test8TestBodyEv
FNDA:2,_ZN20FBT_test_isFull_TestC2Ev
FNDA:2,_ZN20FBT_test_isFull_TestD0Ev
FNDA:2,_ZN20FBT_test_isFull_TestD2Ev
FNDA:2,_ZN21FBT_test_notFull_Test8TestBodyEv
FNDA:2,_ZN21FBT_test_notFull_TestC2Ev
FNDA:2,_ZN21FBT_test_notFull_TestD0Ev
FNDA:2,_ZN21FBT_test_notFull_TestD2Ev
FNDA:2,_ZN25FBT_test_Constructor_Test8TestBodyEv
FNDA:2,_ZN25FBT_test_Constructor_TestC2Ev
FNDA:2,_ZN25FBT_test_Constructor_TestD0Ev
FNDA:2,_ZN25FBT_test_Constructor_TestD2Ev
FNDA:2,_ZN22FBT_test_findNode_Test8TestBodyEv
FNDA:2,_ZN22FBT_test_findNode_TestC2Ev
FNDA:2,_ZN22FBT_test_findNode_TestD0Ev
FNDA:2,_ZN22FBT_test_findNode_TestD2Ev
FNF:20
FNH:20
DA:4,8
DA:6,2
DA:8,2
DA:9,2
DA:12,8
DA:14,2
DA:15,2
DA:16,2
DA:18,2
DA:19,2
DA:20,2
DA:22,8
DA:24,2
DA:25,2
DA:26,2
DA:29,2
DA:30,2
DA:32,8
DA:34,2
DA:35,2
DA:36,2
DA:37,2
DA:39,2
DA:40,2
DA:42,8
DA:44,2
DA:45,2
DA:46,2
DA:48,2
DA:49,2
DA:50,2
DA:52,2
DA:53,2
LF:33
LH:33
end_of_record
TN:
SF:/home/anton/3laba_2kurs/tests/test_ForwardList.cpp
FN:10,10,_ZN29ForwardList_test_isEmpty_Test8TestBodyEv
FN:10,10,_ZN29ForwardList_test_isEmpty_TestC2Ev
FN:10,10,_ZN29ForwardList_test_isEmpty_TestD0Ev
FN:10,10,_ZN29ForwardList_test_isEmpty_TestD2Ev
FN:100,110,_ZN28ForwardList_test_remove_Test8TestBodyEv
FN:100,110,_ZN28ForwardList_test_remove_TestC2Ev
FN:100,110,_ZN28ForwardList_test_remove_TestD0Ev
FN:100,110,_ZN28ForwardList_test_remove_TestD2Ev
FN:18,18,_ZN26ForwardList_test_size_Test8TestBodyEv
FN:18,18,_ZN26ForwardList_test_size_TestC2Ev
FN:18,18,_ZN26ForwardList_test_size_TestD0Ev
FN:18,18,_ZN26ForwardList_test_size_TestD2Ev
FN:26,26,_ZN25ForwardList_test_get_Test8TestBodyEv
FN:26,26,_ZN25ForwardList_test_get_TestC2Ev
FN:26,26,_ZN25ForwardList_test_get_TestD0Ev
FN:26,26,_ZN25ForwardList_test_get_TestD2Ev
FN:39,39,_ZN29ForwardList_test_addTail_Test8TestBodyEv
FN:39,39,_ZN29ForwardList_test_addTail_TestC2Ev
FN:39,39,_ZN29ForwardList_test_addTail_TestD0Ev
FN:39,39,_ZN29ForwardList_test_addTail_TestD2Ev
FN:4,4,_ZN40ForwardList_test_defaultConstructor_Test8TestBodyEv
FN:4,4,_ZN40ForwardList_test_defaultConstructor_TestC2Ev
FN:4,4,_ZN40ForwardList_test_defaultConstructor_TestD0Ev
FN:4,4,_ZN40ForwardList_test_defaultConstructor_TestD2Ev
FN:50,50,_ZN29ForwardList_test_addHead_Test8TestBodyEv
FN:50,50,_ZN29ForwardList_test_addHead_TestC2Ev
FN:50,50,_ZN29ForwardList_test_addHead_TestD0Ev
FN:50,50,_ZN29ForwardList_test_addHead_TestD2Ev
FN:61,61,_ZN29ForwardList_test_delHead_Test8TestBodyEv
FN:61,61,_ZN29ForwardList_test_delHead_TestC2Ev
FN:61,61,_ZN29ForwardList_test_delHead_TestD0Ev
FN:61,61,_ZN29ForwardList_test_delHead_TestD2Ev
FN:75,75,_ZN29ForwardList_test_delTail_Test8TestBodyEv
FN:75,75,_ZN29ForwardList_test_delTail_TestC2Ev
FN:75,75,_ZN29ForwardList_test_delTail_TestD0Ev
FN:75,75,_ZN29ForwardList_test_delTail_TestD2Ev
FN:89,98,_ZN28ForwardList_test_search_Test8TestBodyEv
FN:89,98,_ZN28ForwardList_test_search_TestC2Ev
FN:89,98,_ZN28ForwardList_test_search_TestD0Ev
FN:89,98,_ZN28ForwardList_test_search_TestD2Ev
FNDA:2,_ZN29ForwardList_test_isEmpty_Test8TestBodyEv
FNDA:2,_ZN29ForwardList_test_isEmpty_TestC2Ev
FNDA:2,_ZN29ForwardList_test_isEmpty_TestD0Ev
FNDA:2,_ZN29ForwardList_test_isEmpty_TestD2Ev
FNDA:2,_ZN28ForwardList_test_remove_Test8TestBodyEv
FNDA:2,_ZN28ForwardList_test_remove_TestC2Ev
FNDA:2,_ZN28ForwardList_test_remove_TestD0Ev
FNDA:2,_ZN28ForwardList_test_remove_TestD2Ev
FNDA:2,_ZN26ForwardList_test_size_Test8TestBodyEv
FNDA:2,_ZN26ForwardList_test_size_TestC2Ev
FNDA:2,_ZN26ForwardList_test_size_TestD0Ev
FNDA:2,_ZN26ForwardList_test_size_TestD2Ev
FNDA:2,_ZN25ForwardList_test_get_Test8TestBodyEv
FNDA:2,_ZN25ForwardList_test_get_TestC2Ev
FNDA:2,_ZN25ForwardList_test_get_TestD0Ev
FNDA:2,_ZN25ForwardList_test_get_TestD2Ev
FNDA:2,_ZN29ForwardList_test_addTail_Test8TestBodyEv
FNDA:2,_ZN29ForwardList_test_addTail_TestC2Ev
FNDA:2,_ZN29ForwardList_test_addTail_TestD0Ev
FNDA:2,_ZN29ForwardList_test_addTail_TestD2Ev
FNDA:2,_ZN40ForwardList_test_defaultConstructor_Test8TestBodyEv
FNDA:2,_ZN40ForwardList_test_defaultConstructor_TestC2Ev
FNDA:2,_ZN40ForwardList_test_defaultConstructor_TestD0Ev
FNDA:2,_ZN40ForwardList_test_defaultConstructor_TestD2Ev
FNDA:2,_ZN29ForwardList_test_addHead_Test8TestBodyEv
FNDA:2,_ZN29ForwardList_test_addHead_TestC2Ev
FNDA:2,_ZN29ForwardList_test_addHead_TestD0Ev
FNDA:2,_ZN29ForwardList_test_addHead_TestD2Ev
FNDA:2,_ZN29ForwardList_test_delHead_Test8TestBodyEv
FNDA:2,_ZN29ForwardList_test_delHead_TestC2Ev
FNDA:2,_ZN29ForwardList_test_delHead_TestD0Ev
FNDA:2,_ZN29ForwardList_test_delHead_TestD2Ev
FNDA:2,_ZN29ForwardList_test_delTail_Test8TestBodyEv
FNDA:2,_ZN29ForwardList_test_delTail_TestC2Ev
FNDA:2,_ZN29ForwardList_test_delTail_TestD0Ev
FNDA:2,_ZN29ForwardList_test_delTail_TestD2Ev
FNDA:2,_ZN28ForwardList_test_search_Test8TestBodyEv
FNDA:2,_ZN28ForwardList_test_search_TestC2Ev
FNDA:2,_ZN28ForwardList_test_search_TestD0Ev
FNDA:2,_ZN28ForwardList_test_search_TestD2Ev
FNF:40
FNH:40
DA:4,8
DA:6,2
DA:7,2
DA:8,2
DA:10,8
DA:12,2
DA:13,2
DA:14,2
DA:15,2
DA:16,2
DA:18,8
DA:20,2
DA:21,2
DA:22,2
DA:23,2
DA:24,2
DA:26,8
DA:28,2
DA:29,4
DA:30,4
DA:31,2
DA:32,2
DA:33,2
DA:34,2
DA:35,2
DA:36,2
DA:37,2
DA:39,8
DA:41,2
DA:42,2
DA:43,2
DA:44,2
DA:45,2
DA:46,2
DA:47,2
DA:48,2
DA:50,8
DA:52,2
DA:53,2
DA:54,2
DA:55,2
DA:56,2
DA:57,2
DA:58,2
DA:59,2
DA:61,8
DA:63,2
DA:64,2
DA:65,4
DA:66,2
DA:67,2
DA:68,2
DA:69,2
DA:70,2
DA:71,2
DA:72,2
DA:73,2
DA:75,8
DA:77,2
DA:78,2
DA:79,4
DA:80,2
DA:81,2
DA:82,2
DA:83,2
DA:84,2
DA:85,2
DA:86,2
DA:87,2
DA:89,8
DA:91,2
DA:92,6
DA:93,4
DA:94,4
DA:95,2
DA:96,6
DA:97,6
DA:98,2
DA:100,8
DA:102,2
DA:103,4
DA:104,4
DA:105,2
DA:106,6
DA:107,2
DA:108,6
DA:109,2
DA:110,2
LF:88
LH:88
end_of_record
TN:
SF:/home/anton/3laba_2kurs/tests/test_LinkedList.cpp
FN:10,10,_ZN28LinkedList_test_isEmpty_Test8TestBodyEv
FN:10,10,_ZN28LinkedList_test_isEmpty_TestC2Ev
FN:10,10,_ZN28LinkedList_test_isEmpty_TestD0Ev
FN:10,10,_ZN28LinkedList_test_isEmpty_TestD2Ev
FN:115,115,_ZN27LinkedList_test_remove_Test8TestBodyEv
FN:115,115,_ZN27LinkedList_test_remove_TestC2Ev
FN:115,115,_ZN27LinkedList_test_remove_TestD0Ev
FN:115,115,_ZN27LinkedList_test_remove_TestD2Ev
FN:17,17,_ZN27LinkedList_test_search_Test8TestBodyEv
FN:17,17,_ZN27LinkedList_test_search_TestC2Ev
FN:17,17,_ZN27LinkedList_test_search_TestD0Ev
FN:17,17,_ZN27LinkedList_test_search_TestD2Ev
FN:29,29,_ZN24LinkedList_test_get_Test8TestBodyEv
FN:29,29,_ZN24LinkedList_test_get_TestC2Ev
FN:29,29,_ZN24LinkedList_test_get_TestD0Ev
FN:29,29,_ZN24LinkedList_test_get_TestD2Ev
FN:39,39,_ZN28LinkedList_test_addHead_Test8TestBodyEv
FN:39,39,_ZN28LinkedList_test_addHead_TestC2Ev
FN:39,39,_ZN28LinkedList_test_addHead_TestD0Ev
FN:39,39,_ZN28LinkedList_test_addHead_TestD2Ev
FN:4,4,_ZN32LinkedList_test_constructor_Test8TestBodyEv
FN:4,4,_ZN32LinkedList_test_constructor_TestC2Ev
FN:4,4,_ZN32LinkedList_test_constructor_TestD0Ev
FN:4,4,_ZN32LinkedList_test_constructor_TestD2Ev
FN:54,54,_ZN28LinkedList_test_addTail_Test8TestBodyEv
FN:54,54,_ZN28LinkedList_test_addTail_TestC2Ev
FN:54,54,_ZN28LinkedList_test_addTail_TestD0Ev
FN:54,54,_ZN28LinkedList_test_addTail_TestD2Ev
FN:69,69,_ZN28LinkedList_test_delHead_Test8TestBodyEv
FN:69,69,_ZN28LinkedList_test_delHead_TestC2Ev
FN:69,69,_ZN28LinkedList_test_delHead_TestD0Ev
FN:69,69,_ZN28LinkedList_test_delHead_TestD2Ev
FN:92,113,_ZN28LinkedList_test_delTail_Test8TestBodyEv
FN:92,113,_ZN28LinkedList_test_delTail_TestC2Ev
FN:92,113,_ZN28LinkedList_test_delTail_TestD0Ev
FN:92,113,_ZN28LinkedList_test_delTail_TestD2Ev
FNDA:2,_ZN28LinkedList_test_isEmpty_Test8TestBodyEv
FNDA:2,_ZN28LinkedList_test_isEmpty_TestC2Ev
FNDA:2,_ZN28LinkedList_test_isEmpty_TestD0Ev
FNDA:2,_ZN28LinkedList_test_isEmpty_TestD2Ev
FNDA:2,_ZN27LinkedList_test_remove_Test8TestBodyEv
FNDA:2,_ZN27LinkedList_test_remove_TestC2Ev
FNDA:2,_ZN27LinkedList_test_remove_TestD0Ev
FNDA:2,_ZN27LinkedList_test_remove_TestD2Ev
FNDA:2,_ZN27LinkedList_test_search_Test8TestBodyEv
FNDA:2,_ZN27LinkedList_test_search_TestC2Ev
FNDA:2,_ZN27LinkedList_test_search_TestD0Ev
FNDA:2,_ZN27LinkedList_test_search_TestD2Ev
FNDA:2,_ZN24LinkedList_test_get_Test8TestBodyEv
FNDA:2,_ZN24LinkedList_test_get_TestC2Ev
FNDA:2,_ZN24LinkedList_test_get_TestD0Ev
FNDA:2,_ZN24LinkedList_test_get_TestD2Ev
FNDA:2,_ZN28LinkedList_test_addHead_Test8TestBodyEv
FNDA:2,_ZN28LinkedList_test_addHead_TestC2Ev
FNDA:2,_ZN28LinkedList_test_addHead_TestD0Ev
FNDA:2,_ZN28LinkedList_test_addHead_TestD2Ev
FNDA:2,_ZN32LinkedList_test_constructor_Test8TestBodyEv
FNDA:2,_ZN32LinkedList_test_constructor_TestC2Ev
FNDA:2,_ZN32LinkedList_test_constructor_TestD0Ev
FNDA:2,_ZN32LinkedList_test_constructor_TestD2Ev
FNDA:2,_ZN28LinkedList_test_addTail_Test8TestBodyEv
FNDA:2,_ZN28LinkedList_test_addTail_TestC2Ev
FNDA:2,_ZN28LinkedList_test_addTail_TestD0Ev
FNDA:2,_ZN28LinkedList_test_addTail_TestD2Ev
FNDA:2,_ZN28LinkedList_test_delHead_Test8TestBodyEv
FNDA:2,_ZN28LinkedList_test_delHead_TestC2Ev
FNDA:2,_ZN28LinkedList_test_delHead_TestD0Ev
FNDA:2,_ZN28LinkedList_test_delHead_TestD2Ev
FNDA:2,_ZN28LinkedList_test_delTail_Test8TestBodyEv
FNDA:2,_ZN28LinkedList_test_delTail_TestC2Ev
FNDA:2,_ZN28LinkedList_test_delTail_TestD0Ev
FNDA:2,_ZN28LinkedList_test_delTail_TestD2Ev
FNF:36
FNH:36
DA:4,8
DA:6,2
DA:7,2
DA:8,2
DA:10,8
DA:12,2
DA:13,2
DA:14,2
DA:15,2
DA:17,8
DA:19,2
DA:20,6
DA:21,2
DA:23,2
DA:24,2
DA:25,6
DA:26,6
DA:27,2
DA:29,8
DA:31,2
DA:32,2
DA:33,4
DA:34,4
DA:35,2
DA:36,2
DA:37,2
DA:39,8
DA:41,2
DA:42,2
DA:44,2
DA:45,2
DA:47,2
DA:49,2
DA:50,2
DA:51,2
DA:52,2
DA:54,8
DA:56,2
DA:57,2
DA:59,2
DA:60,6
DA:61,2
DA:62,2
DA:64,2
DA:65,2
DA:66,2
DA:67,2
DA:69,8
DA:71,2
DA:72,2
DA:73,4
DA:74,4
DA:75,2
DA:76,2
DA:77,2
DA:79,2
DA:80,2
DA:81,2
DA:83,2
DA:84,2
DA:85,2
DA:87,2
DA:88,2
DA:89,2
DA:90,2
DA:92,8
DA:94,2
DA:95,2
DA:96,4
DA:97,4
DA:98,2
DA:99,2
DA:100,2
DA:102,2
DA:103,2
DA:104,2
DA:106,2
DA:107,2
DA:108,2
DA:110,2
DA:111,2
DA:112,2
DA:113,2
DA:115,8
DA:117,2
DA:118,6
DA:119,4
DA:120,4
DA:121,2
DA:122,2
DA:123,2
DA:125,2
DA:126,6
DA:127,2
DA:128,2
LF:95
LH:95
end_of_record
TN:
SF:/home/anton/3laba_2kurs/tests/test_Queue.cpp
FN:10,10,_ZN23Queue_test_isEmpty_Test8TestBodyEv
FN:10,10,_ZN23Queue_test_isEmpty_TestC2Ev
FN:10,10,_ZN23Queue_test_isEmpty_TestD0Ev
FN:10,10,_ZN23Queue_test_isEmpty_TestD2Ev
FN:16,16,_ZN20Queue_test_push_Test8TestBodyEv
FN:16,16,_ZN20Queue_test_push_TestC2Ev
FN:16,16,_ZN20Queue_test_push_TestD0Ev
FN:16,16,_ZN20Queue_test_push_TestD2Ev
FN:23,23,_ZN19Queue_test_pop_Test8TestBodyEv
FN:23,23,_ZN19Queue_test_pop_TestC2Ev
FN:23,23,_ZN19Queue_test_pop_TestD0Ev
FN:23,23,_ZN19Queue_test_pop_TestD2Ev
FN:31,31,_ZN24Queue_test_popError_Test8TestBodyEv
FN:31,31,_ZN24Queue_test_popError_TestC2Ev
FN:31,31,_ZN24Queue_test_popError_TestD0Ev
FN:31,31,_ZN24Queue_test_popError_TestD2Ev
FN:4,4,_ZN34Queue_test_defaultConstructor_Test8TestBodyEv
FN:4,4,_ZN34Queue_test_defaultConstructor_TestC2Ev
FN:4,4,_ZN34Queue_test_defaultConstructor_TestD0Ev
FN:4,4,_ZN34Queue_test_defaultConstructor_TestD2Ev
FNDA:2,_ZN23Queue_test_isEmpty_Test8TestBodyEv
FNDA:2,_ZN23Queue_test_isEmpty_TestC2Ev
FNDA:2,_ZN23Queue_test_isEmpty_TestD0Ev
FNDA:2,_ZN23Queue_test_isEmpty_TestD2Ev
FNDA:2,_ZN20Queue_test_push_Test8TestBodyEv
FNDA:2,_ZN20Queue_test_push_TestC2Ev
FNDA:2,_ZN20Queue_test_push_TestD0Ev
FNDA:2,_ZN20Queue_test_push_TestD2Ev
FNDA:2,_ZN19Queue_test_pop_Test8TestBodyEv
FNDA:2,_ZN19Queue_test_pop_TestC2Ev
FNDA:2,_ZN19Queue_test_pop_TestD0Ev
FNDA:2,_ZN19Queue_test_pop_TestD2Ev
FNDA:2,_ZN24Queue_test_popError_Test8TestBodyEv
FNDA:2,_ZN24Queue_test_popError_TestC2Ev
FNDA:2,_ZN24Queue_test_popError_TestD0Ev
FNDA:2,_ZN24Queue_test_popError_TestD2Ev
FNDA:2,_ZN34Queue_test_defaultConstructor_Test8TestBodyEv
FNDA:2,_ZN34Queue_test_defaultConstructor_TestC2Ev
FNDA:2,_ZN34Queue_test_defaultConstructor_TestD0Ev
FNDA:2,_ZN34Queue_test_defaultConstructor_TestD2Ev
FNF:20
FNH:20
DA:4,8
DA:6,2
DA:7,2
DA:8,2
DA:10,8
DA:12,2
DA:13,2
DA:14,2
DA:16,8
DA:18,2
DA:19,2
DA:20,2
DA:21,2
DA:23,8
DA:25,2
DA:26,2
DA:27,2
DA:28,2
DA:29,2
DA:31,8
DA:33,2
DA:34,2
DA:35,2
DA:36,2
LF:24
LH:24
end_of_record
TN:
SF:/home/anton/3laba_2kurs/tests/test_Stack.cpp
FN:11,11,_ZN23Stack_test_isEmpty_Test8TestBodyEv
FN:11,11,_ZN23Stack_test_isEmpty_TestC2Ev
FN:11,11,_ZN23Stack_test_isEmpty_TestD0Ev
FN:11,11,_ZN23Stack_test_isEmpty_TestD2Ev
FN:17,17,_ZN28Stack_test_isEmptyError_Test8TestBodyEv
FN:17,17,_ZN28Stack_test_isEmptyError_TestC2Ev
FN:17,17,_ZN28Stack_test_isEmptyError_TestD0Ev
FN:17,17,_ZN28Stack_test_isEmptyError_TestD2Ev
FN:24,24,_ZN20Stack_test_push_Test8TestBodyEv
FN:24,24,_ZN20Stack_test_push_TestC2Ev
FN:24,24,_ZN20Stack_test_push_TestD0Ev
FN:24,24,_ZN20Stack_test_push_TestD2Ev
FN:31,31,_ZN19Stack_test_pop_Test8TestBodyEv
FN:31,31,_ZN19Stack_test_pop_TestC2Ev
FN:31,31,_ZN19Stack_test_pop_TestD0Ev
FN:31,31,_ZN19Stack_test_pop_TestD2Ev
FN:39,39,_ZN24Stack_test_popError_Test8TestBodyEv
FN:39,39,_ZN24Stack_test_popError_TestC2Ev
FN:39,39,_ZN24Stack_test_popError_TestD0Ev
FN:39,39,_ZN24Stack_test_popError_TestD2Ev
FN:5,5,_ZN34Stack_test_defaultConstructor_Test8TestBodyEv
FN:5,5,_ZN34Stack_test_defaultConstructor_TestC2Ev
FN:5,5,_ZN34Stack_test_defaultConstructor_TestD0Ev
FN:5,5,_ZN34Stack_test_defaultConstructor_TestD2Ev
FNDA:2,_ZN23Stack_test_isEmpty_Test8TestBodyEv
FNDA:2,_ZN23Stack_test_isEmpty_TestC2Ev
FNDA:2,_ZN23Stack_test_isEmpty_TestD0Ev
FNDA:2,_ZN23Stack_test_isEmpty_TestD2Ev
FNDA:2,_ZN28Stack_test_isEmptyError_Test8TestBodyEv
FNDA:2,_ZN28Stack_test_isEmptyError_TestC2Ev
FNDA:2,_ZN28Stack_test_isEmptyError_TestD0Ev
FNDA:2,_ZN28Stack_test_isEmptyError_TestD2Ev
FNDA:2,_ZN20Stack_test_push_Test8TestBodyEv
FNDA:2,_ZN20Stack_test_push_TestC2Ev
FNDA:2,_ZN20Stack_test_push_TestD0Ev
FNDA:2,_ZN20Stack_test_push_TestD2Ev
FNDA:2,_ZN19Stack_test_pop_Test8TestBodyEv
FNDA:2,_ZN19Stack_test_pop_TestC2Ev
FNDA:2,_ZN19Stack_test_pop_TestD0Ev
FNDA:2,_ZN19Stack_test_pop_TestD2Ev
FNDA:2,_ZN24Stack_test_popError_Test8TestBodyEv
FNDA:2,_ZN24Stack_test_popError_TestC2Ev
FNDA:2,_ZN24Stack_test_popError_TestD0Ev
FNDA:2,_ZN24Stack_test_popError_TestD2Ev
FNDA:2,_ZN34Stack_test_defaultConstructor_Test8TestBodyEv
FNDA:2,_ZN34Stack_test_defaultConstructor_TestC2Ev
FNDA:2,_ZN34Stack_test_defaultConstructor_TestD0Ev
FNDA:2,_ZN34Stack_test_defaultConstructor_TestD2Ev
FNF:24
FNH:24
DA:5,8
DA:7,2
DA:8,2
DA:9,2
DA:11,8
DA:13,2
DA:14,2
DA:15,2
DA:17,8
DA:19,2
DA:20,2
DA:21,2
DA:22,2
DA:24,8
DA:26,2
DA:27,2
DA:28,2
DA:29,2
DA:31,8
DA:33,2
DA:34,2
DA:35,2
DA:36,2
DA:37,2
DA:39,8
DA:41,2
DA:42,2
DA:43,2
DA:44,2
LF:29
LH:29
end_of_record
TN:
SF:/home/anton/3laba_2kurs/tests/test_hash.cpp
FN:17,17,_ZN31Hashtable_test_updateValue_Test8TestBodyEv
FN:17,17,_ZN31Hashtable_test_updateValue_TestC2Ev
FN:17,17,_ZN31Hashtable_test_updateValue_TestD0Ev
FN:17,17,_ZN31Hashtable_test_updateValue_TestD2Ev
FN:27,27,_ZN26Hashtable_test_remove_Test8TestBodyEv
FN:27,27,_ZN26Hashtable_test_remove_TestC2Ev
FN:27,27,_ZN26Hashtable_test_remove_TestD0Ev
FN:27,27,_ZN26Hashtable_test_remove_TestD2Ev
FN:4,4,_ZN29Hashtable_test_addAndGet_Test8TestBodyEv
FN:4,4,_ZN29Hashtable_test_addAndGet_TestC2Ev
FN:4,4,_ZN29Hashtable_test_addAndGet_TestD0Ev
FN:4,4,_ZN29Hashtable_test_addAndGet_TestD2Ev
FN:41,41,_ZN29Hashtable_test_collision_Test8TestBodyEv
FN:41,41,_ZN29Hashtable_test_collision_TestC2Ev
FN:41,41,_ZN29Hashtable_test_collision_TestD0Ev
FN:41,41,_ZN29Hashtable_test_collision_TestD2Ev
FNDA:2,_ZN31Hashtable_test_updateValue_Test8TestBodyEv
FNDA:2,_ZN31Hashtable_test_updateValue_TestC2Ev
FNDA:2,_ZN31Hashtable_test_updateValue_TestD0Ev
FNDA:2,_ZN31Hashtable_test_updateValue_TestD2Ev
FNDA:2,_ZN26Hashtable_test_remove_Test8TestBodyEv
FNDA:2,_ZN26Hashtable_test_remove_TestC2Ev
FNDA:2,_ZN26Hashtable_test_remove_TestD0Ev
FNDA:2,_ZN26Hashtable_test_remove_TestD2Ev
FNDA:2,_ZN29Hashtable_test_addAndGet_Test8TestBodyEv
FNDA:2,_ZN29Hashtable_test_addAndGet_TestC2Ev
FNDA:2,_ZN29Hashtable_test_addAndGet_TestD0Ev
FNDA:2,_ZN29Hashtable_test_addAndGet_TestD2Ev
FNDA:2,_ZN29Hashtable_test_collision_Test8TestBodyEv
FNDA:2,_ZN29Hashtable_test_collision_TestC2Ev
FNDA:2,_ZN29Hashtable_test_collision_TestD0Ev
FNDA:2,_ZN29Hashtable_test_collision_TestD2Ev
FNF:16
FNH:16
DA:4,8
DA:6,2
DA:8,8
DA:9,8
DA:11,4
DA:12,4
DA:14,6
DA:15,2
DA:17,8
DA:19,2
DA:21,8
DA:22,8
DA:24,4
DA:25,2
DA:27,8
DA:29,2
DA:31,8
DA:32,8
DA:34,2
DA:36,6
DA:38,4
DA:39,2
DA:41,8
DA:43,2
DA:45,8
DA:46,8
DA:48,4
DA:49,4
DA:50,2
LF:29
LH:29
end_of_record
